; Function Attrs: nounwind uwtable
define dso_local i64 @enum_range_bounds(ptr noundef readonly captures(none) %0) local_unnamed_addr #0 {
  %2 = getelementptr inbounds nuw i8, ptr %0, i64 40
  %3 = load i8, ptr %2, align 8, !range !4, !noundef !5
  %4 = trunc nuw i8 %3 to i1
  br i1 %4, label %9, label %5

5:                                                ; preds = %1
  %6 = getelementptr inbounds nuw i8, ptr %0, i64 32
  %7 = load i64, ptr %6, align 8
  %8 = trunc i64 %7 to i32
  br label %9

9:                                                ; preds = %1, %5
  %.0 = phi i32 [ %8, %5 ], [ 0, %1 ]
  %10 = getelementptr inbounds nuw i8, ptr %0, i64 56
  %11 = load i8, ptr %10, align 8, !range !4, !noundef !5
  %12 = trunc nuw i8 %11 to i1
  br i1 %12, label %17, label %13

13:                                               ; preds = %9
  %14 = getelementptr inbounds nuw i8, ptr %0, i64 48
  %15 = load i64, ptr %14, align 8
  %16 = trunc i64 %15 to i32
  br label %17

17:                                               ; preds = %9, %13
  %.08 = phi i32 [ %16, %13 ], [ 0, %9 ]
  %18 = load ptr, ptr %0, align 8
  %19 = tail call i32 @get_fn_expr_argtype(ptr noundef %18, i32 noundef 0) #8
  %20 = icmp eq i32 %19, 0
  br i1 %20, label %21, label %25

21:                                               ; preds = %17
  %22 = tail call zeroext i1 @errstart_cold(i32 noundef 21, ptr noundef null) #9
  tail call void @llvm.assume(i1 %22)
  %23 = tail call i32 @errcode(i32 noundef 1088) #8
  %24 = tail call i32 (ptr, ...) @errmsg(ptr noundef nonnull @.str.3) #8
  tail call void @errfinish(ptr noundef nonnull @.str.1, i32 noundef 520, ptr noundef nonnull @__func__.enum_range_bounds) #8
  unreachable

25:                                               ; preds = %17
  %26 = tail call fastcc ptr @enum_range_internal(i32 noundef %19, i32 noundef %.0, i32 noundef %.08)
  %27 = ptrtoint ptr %26 to i64
  ret i64 %27
}